target datalayout = "e-m:e-p270:32:32-p271:32:32-p272:64:64-i64:64-i128:128-f80:128-n8:16:32:64-S128"
target triple = "x86_64-unknown-linux-gnu"

%struct.QTailQLink = type { ptr, ptr }
%union.anon.2 = type { %struct.QTailQLink }
%struct.FWLCHSEntry = type { %union.anon.1, ptr, ptr, i32, i32, i32 }
%union.anon.1 = type { %struct.QTailQLink }

@fw_lchs = internal global %union.anon.2 { %struct.QTailQLink { ptr null, ptr @fw_lchs } }, align 8
@.str.9 = private unnamed_addr constant [12 x i8] c"%s %u %u %u\00", align 1

; Function Attrs: nounwind sspstrong uwtable
define dso_local ptr @get_boot_devices_lchs_list(ptr noundef %size) #0 {
entry:
  %size.addr = alloca ptr, align 8
  %i = alloca ptr, align 8
  %total = alloca i64, align 8
  %list = alloca ptr, align 8
  %bootpath = alloca ptr, align 8
  %chs_string = alloca ptr, align 8
  %len = alloca i64, align 8
  store ptr %size, ptr %size.addr, align 8
  store i64 0, ptr %total, align 8
  store ptr null, ptr %list, align 8
  %0 = load ptr, ptr @fw_lchs, align 8
  store ptr %0, ptr %i, align 8
  br label %for.cond

for.cond:                                         ; preds = %for.inc, %entry
  %1 = load ptr, ptr %i, align 8
  %tobool = icmp ne ptr %1, null
  br i1 %tobool, label %for.body, label %for.end

for.body:                                         ; preds = %for.cond
  %2 = load ptr, ptr %i, align 8
  %dev = getelementptr inbounds %struct.FWLCHSEntry, ptr %2, i32 0, i32 1
  %3 = load ptr, ptr %dev, align 8
  %4 = load ptr, ptr %i, align 8
  %suffix = getelementptr inbounds %struct.FWLCHSEntry, ptr %4, i32 0, i32 2
  %5 = load ptr, ptr %suffix, align 8
  %call = call ptr @get_boot_device_path(ptr noundef %3, i1 noundef zeroext false, ptr noundef %5)
  store ptr %call, ptr %bootpath, align 8
  %6 = load ptr, ptr %bootpath, align 8
  %7 = load ptr, ptr %i, align 8
  %lcyls = getelementptr inbounds %struct.FWLCHSEntry, ptr %7, i32 0, i32 3
  %8 = load i32, ptr %lcyls, align 8
  %9 = load ptr, ptr %i, align 8
  %lheads = getelementptr inbounds %struct.FWLCHSEntry, ptr %9, i32 0, i32 4
  %10 = load i32, ptr %lheads, align 4
  %11 = load ptr, ptr %i, align 8
  %lsecs = getelementptr inbounds %struct.FWLCHSEntry, ptr %11, i32 0, i32 5
  %12 = load i32, ptr %lsecs, align 8
  %call1 = call noalias ptr (ptr, ...) @g_strdup_printf(ptr noundef @.str.9, ptr noundef %6, i32 noundef %8, i32 noundef %10, i32 noundef %12)
  store ptr %call1, ptr %chs_string, align 8
  %13 = load i64, ptr %total, align 8
  %tobool2 = icmp ne i64 %13, 0
  br i1 %tobool2, label %if.then, label %if.end

if.then:                                          ; preds = %for.body
  %14 = load ptr, ptr %list, align 8
  %15 = load i64, ptr %total, align 8
  %sub = sub i64 %15, 1
  %arrayidx = getelementptr i8, ptr %14, i64 %sub
  store i8 10, ptr %arrayidx, align 1
  br label %if.end

if.end:                                           ; preds = %if.then, %for.body
  %16 = load ptr, ptr %chs_string, align 8
  %call3 = call i64 @strlen(ptr noundef %16) #9
  %add = add i64 %call3, 1
  store i64 %add, ptr %len, align 8
  %17 = load ptr, ptr %list, align 8
  %18 = load i64, ptr %total, align 8
  %19 = load i64, ptr %len, align 8
  %add4 = add i64 %18, %19
  %call5 = call ptr @g_realloc(ptr noundef %17, i64 noundef %add4)
  store ptr %call5, ptr %list, align 8
  %20 = load ptr, ptr %list, align 8
  %21 = load i64, ptr %total, align 8
  %arrayidx6 = getelementptr i8, ptr %20, i64 %21
  %22 = load ptr, ptr %chs_string, align 8
  %23 = load i64, ptr %len, align 8
  call void @llvm.memcpy.p0.p0.i64(ptr align 1 %arrayidx6, ptr align 1 %22, i64 %23, i1 false)
  %24 = load i64, ptr %len, align 8
  %25 = load i64, ptr %total, align 8
  %add7 = add i64 %25, %24
  store i64 %add7, ptr %total, align 8
  %26 = load ptr, ptr %chs_string, align 8
  call void @g_free(ptr noundef %26)
  %27 = load ptr, ptr %bootpath, align 8
  call void @g_free(ptr noundef %27)
  br label %for.inc

for.inc:                                          ; preds = %if.end
  %28 = load ptr, ptr %i, align 8
  %link = getelementptr inbounds %struct.FWLCHSEntry, ptr %28, i32 0, i32 0
  %29 = load ptr, ptr %link, align 8
  store ptr %29, ptr %i, align 8
  br label %for.cond, !llvm.loop !13

for.end:                                          ; preds = %for.cond
  %30 = load i64, ptr %total, align 8
  %31 = load ptr, ptr %size.addr, align 8
  store i64 %30, ptr %31, align 8
  %32 = load ptr, ptr %list, align 8
  ret ptr %32
}