; Function Attrs: nounwind sspstrong uwtable
define dso_local ptr @get_boot_devices_lchs_list(ptr noundef writeonly captures(none) %size) local_unnamed_addr #1 {
entry:
  %i.020 = load ptr, ptr @fw_lchs, align 8
  %tobool.not21 = icmp eq ptr %i.020, null
  br i1 %tobool.not21, label %for.end, label %for.body

for.body:                                         ; preds = %entry, %if.end
  %i.024 = phi ptr [ %i.0, %if.end ], [ %i.020, %entry ]
  %total.023 = phi i64 [ %add4, %if.end ], [ 0, %entry ]
  %list.022 = phi ptr [ %call5, %if.end ], [ null, %entry ]
  %dev = getelementptr inbounds nuw i8, ptr %i.024, i64 16
  %0 = load ptr, ptr %dev, align 8
  %suffix = getelementptr inbounds nuw i8, ptr %i.024, i64 24
  %1 = load ptr, ptr %suffix, align 8
  %call = tail call fastcc ptr @get_boot_device_path(ptr noundef %0, i1 noundef zeroext false, ptr noundef %1)
  %lcyls = getelementptr inbounds nuw i8, ptr %i.024, i64 32
  %2 = load i32, ptr %lcyls, align 8
  %lheads = getelementptr inbounds nuw i8, ptr %i.024, i64 36
  %3 = load i32, ptr %lheads, align 4
  %lsecs = getelementptr inbounds nuw i8, ptr %i.024, i64 40
  %4 = load i32, ptr %lsecs, align 8
  %call1 = tail call noalias ptr (ptr, ...) @g_strdup_printf(ptr noundef nonnull @.str.9, ptr noundef %call, i32 noundef %2, i32 noundef %3, i32 noundef %4) #11
  %tobool2.not = icmp eq i64 %total.023, 0
  br i1 %tobool2.not, label %if.end, label %if.then

if.then:                                          ; preds = %for.body
  %5 = getelementptr i8, ptr %list.022, i64 %total.023
  %arrayidx = getelementptr i8, ptr %5, i64 -1
  store i8 10, ptr %arrayidx, align 1
  br label %if.end

if.end:                                           ; preds = %if.then, %for.body
  %call3 = tail call i64 @strlen(ptr noundef nonnull dereferenceable(1) %call1) #15
  %add = add i64 %call3, 1
  %add4 = add i64 %add, %total.023
  %call5 = tail call ptr @g_realloc(ptr noundef %list.022, i64 noundef %add4) #11
  %arrayidx6 = getelementptr i8, ptr %call5, i64 %total.023
  tail call void @llvm.memcpy.p0.p0.i64(ptr align 1 %arrayidx6, ptr nonnull align 1 %call1, i64 %add, i1 false)
  tail call void @g_free(ptr noundef nonnull %call1) #11
  tail call void @g_free(ptr noundef %call) #11
  %i.0 = load ptr, ptr %i.024, align 8
  %tobool.not = icmp eq ptr %i.0, null
  br i1 %tobool.not, label %for.end, label %for.body, !llvm.loop !13

for.end:                                          ; preds = %if.end, %entry
  %list.0.lcssa = phi ptr [ null, %entry ], [ %call5, %if.end ]
  %total.0.lcssa = phi i64 [ 0, %entry ], [ %add4, %if.end ]
  store i64 %total.0.lcssa, ptr %size, align 8
  ret ptr %list.0.lcssa
}